; Function Attrs: mustprogress nofree norecurse nosync nounwind willreturn memory(read, inaccessiblemem: none) uwtable
define i32 @zend_stack_int_top(ptr nocapture noundef readonly %0) local_unnamed_addr #6 {
  %2 = getelementptr inbounds i8, ptr %0, i64 4
  %3 = load i32, ptr %2, align 4
  %4 = icmp sgt i32 %3, 0
  br i1 %4, label %zend_stack_top.exit, label %zend_stack_top.exit.thread

zend_stack_top.exit:                              ; preds = %1
  %5 = getelementptr inbounds i8, ptr %0, i64 16
  %6 = load ptr, ptr %5, align 8
  %.not = icmp eq ptr %6, null
  br i1 %.not, label %zend_stack_top.exit.thread, label %7

7:                                                ; preds = %zend_stack_top.exit
  %8 = load i32, ptr %0, align 8
  %9 = add nsw i32 %3, -1
  %10 = mul nsw i32 %8, %9
  %11 = sext i32 %10 to i64
  %12 = getelementptr inbounds i8, ptr %6, i64 %11
  %13 = load i32, ptr %12, align 4
  br label %zend_stack_top.exit.thread

zend_stack_top.exit.thread:                       ; preds = %1, %zend_stack_top.exit, %7
  %.0 = phi i32 [ %13, %7 ], [ -1, %zend_stack_top.exit ], [ -1, %1 ]
  ret i32 %.0
}